; Function Attrs: nounwind uwtable
define i32 @X509_NAME_get_text_by_NID(ptr noundef captures(address_is_null) %0, i32 noundef %1, ptr noundef captures(address_is_null) %2, i32 noundef %3) local_unnamed_addr #0 {
  %5 = tail call ptr @OBJ_nid2obj(i32 noundef %1) #6
  %6 = icmp eq ptr %5, null
  br i1 %6, label %9, label %7

7:                                                ; preds = %4
  %8 = tail call i32 @X509_NAME_get_text_by_OBJ(ptr noundef %0, ptr noundef nonnull %5, ptr noundef %2, i32 noundef %3)
  br label %9

9:                                                ; preds = %4, %7
  %.0 = phi i32 [ %8, %7 ], [ -1, %4 ]
  ret i32 %.0
}